; Function Attrs: nounwind uwtable
define range(i32 0, 1000000001) i32 @Sle_ManComputeDelay(ptr noundef readonly captures(none) %0, ptr noundef readonly captures(none) %1) local_unnamed_addr #0 {
  %3 = getelementptr i8, ptr %0, i64 24
  %.val14 = load i32, ptr %3, align 8, !tbaa !44
  %4 = add i32 %.val14, -1
  %or.cond.i.i = icmp ult i32 %4, 15
  %spec.store.select.i.i = select i1 %or.cond.i.i, i32 16, i32 %.val14
  %.not.i.i = icmp eq i32 %spec.store.select.i.i, 0
  br i1 %.not.i.i, label %Vec_IntStart.exit, label %Vec_IntAlloc.exit.i

Vec_IntAlloc.exit.i:                              ; preds = %2
  %5 = sext i32 %spec.store.select.i.i to i64
  %6 = shl nsw i64 %5, 2
  %7 = tail call noalias ptr @malloc(i64 noundef %6) #24
  %.not.i = icmp eq ptr %7, null
  br i1 %.not.i, label %Vec_IntStart.exit, label %8

8:                                                ; preds = %Vec_IntAlloc.exit.i
  %9 = sext i32 %.val14 to i64
  %10 = shl nsw i64 %9, 2
  tail call void @llvm.memset.p0.i64(ptr nonnull align 4 %7, i8 0, i64 %10, i1 false)
  br label %Vec_IntStart.exit

Vec_IntStart.exit:                                ; preds = %2, %Vec_IntAlloc.exit.i, %8
  %11 = phi ptr [ null, %Vec_IntAlloc.exit.i ], [ %7, %8 ], [ null, %2 ]
  %12 = icmp sgt i32 %.val14, 0
  br i1 %12, label %.lr.ph, label %._crit_edge

.lr.ph:                                           ; preds = %Vec_IntStart.exit
  %13 = getelementptr i8, ptr %0, i64 32
  %.val = load ptr, ptr %13, align 8, !tbaa !3
  %14 = getelementptr i8, ptr %1, i64 8
  %15 = zext nneg i32 %.val14 to i64
  br label %16

16:                                               ; preds = %.lr.ph, %43
  %indvars.iv = phi i64 [ 0, %.lr.ph ], [ %indvars.iv.next, %43 ]
  %.01321 = phi i32 [ 0, %.lr.ph ], [ %.1, %43 ]
  %17 = getelementptr inbounds nuw %struct.Gia_Obj_t_, ptr %.val, i64 %indvars.iv
  %.val15 = load i64, ptr %17, align 4
  %18 = and i64 %.val15, 2147483648
  %.not.i16 = icmp ne i64 %18, 0
  %19 = and i64 %.val15, 536870911
  %20 = icmp eq i64 %19, 536870911
  %narrow.i.not = or i1 %.not.i16, %20
  br i1 %narrow.i.not, label %43, label %21

21:                                               ; preds = %16
  %.val.i = load ptr, ptr %14, align 8, !tbaa !28
  %22 = getelementptr inbounds nuw i32, ptr %.val.i, i64 %indvars.iv
  %23 = load i32, ptr %22, align 4, !tbaa !29
  %24 = sext i32 %23 to i64
  %25 = getelementptr inbounds i32, ptr %.val.i, i64 %24
  %26 = load i32, ptr %25, align 4, !tbaa !29
  %27 = icmp sgt i32 %26, 0
  br i1 %27, label %.lr.ph.i, label %Sle_ManComputeDelayOne.exit

.lr.ph.i:                                         ; preds = %21, %Sle_ManComputeDelayCut.exit.i
  %.023.i = phi i32 [ %39, %Sle_ManComputeDelayCut.exit.i ], [ 0, %21 ]
  %.01722.i = phi i32 [ %38, %Sle_ManComputeDelayCut.exit.i ], [ 1000000000, %21 ]
  %.pn21.i = phi ptr [ %40, %Sle_ManComputeDelayCut.exit.i ], [ %25, %21 ]
  %.018.i = getelementptr inbounds nuw i8, ptr %.pn21.i, i64 4
  %.val10.i.i = load i32, ptr %.018.i, align 4, !tbaa !29
  %28 = and i32 %.val10.i.i, 15
  %29 = getelementptr inbounds nuw i8, ptr %.pn21.i, i64 8
  %.not.i.i17 = icmp eq i32 %28, 0
  br i1 %.not.i.i17, label %Sle_ManComputeDelayCut.exit.i, label %.lr.ph.i.i

.lr.ph.i.i:                                       ; preds = %.lr.ph.i
  %wide.trip.count.i.i = zext nneg i32 %28 to i64
  br label %30

30:                                               ; preds = %30, %.lr.ph.i.i
  %indvars.iv.i.i = phi i64 [ 0, %.lr.ph.i.i ], [ %indvars.iv.next.i.i, %30 ]
  %.012.i.i = phi i32 [ 0, %.lr.ph.i.i ], [ %36, %30 ]
  %31 = getelementptr inbounds nuw i32, ptr %29, i64 %indvars.iv.i.i
  %32 = load i32, ptr %31, align 4, !tbaa !29
  %33 = sext i32 %32 to i64
  %34 = getelementptr inbounds i32, ptr %11, i64 %33
  %35 = load i32, ptr %34, align 4, !tbaa !29
  %36 = tail call noundef i32 @llvm.smax.i32(i32 %.012.i.i, i32 %35)
  %indvars.iv.next.i.i = add nuw nsw i64 %indvars.iv.i.i, 1
  %exitcond.not.i.i = icmp eq i64 %indvars.iv.next.i.i, %wide.trip.count.i.i
  br i1 %exitcond.not.i.i, label %._crit_edge.loopexit.i.i, label %30, !llvm.loop !49

._crit_edge.loopexit.i.i:                         ; preds = %30
  %37 = add nuw nsw i32 %36, 1
  br label %Sle_ManComputeDelayCut.exit.i

Sle_ManComputeDelayCut.exit.i:                    ; preds = %._crit_edge.loopexit.i.i, %.lr.ph.i
  %.pre-phi.i = phi i64 [ %wide.trip.count.i.i, %._crit_edge.loopexit.i.i ], [ 0, %.lr.ph.i ]
  %.0.lcssa.i.i = phi i32 [ %37, %._crit_edge.loopexit.i.i ], [ 1, %.lr.ph.i ]
  %38 = tail call noundef i32 @llvm.smin.i32(i32 %.01722.i, i32 range(i32 -2147483647, -2147483648) %.0.lcssa.i.i)
  %39 = add nuw nsw i32 %.023.i, 1
  %40 = getelementptr inbounds nuw i32, ptr %.018.i, i64 %.pre-phi.i
  %exitcond.not.i = icmp eq i32 %39, %26
  br i1 %exitcond.not.i, label %Sle_ManComputeDelayOne.exit, label %.lr.ph.i, !llvm.loop !50

Sle_ManComputeDelayOne.exit:                      ; preds = %Sle_ManComputeDelayCut.exit.i, %21
  %.017.lcssa.i = phi i32 [ 1000000000, %21 ], [ %38, %Sle_ManComputeDelayCut.exit.i ]
  %41 = getelementptr inbounds nuw i32, ptr %11, i64 %indvars.iv
  store i32 %.017.lcssa.i, ptr %41, align 4, !tbaa !29
  %42 = tail call noundef i32 @llvm.smax.i32(i32 %.01321, i32 %.017.lcssa.i)
  br label %43

43:                                               ; preds = %Sle_ManComputeDelayOne.exit, %16
  %.1 = phi i32 [ %42, %Sle_ManComputeDelayOne.exit ], [ %.01321, %16 ]
  %indvars.iv.next = add nuw nsw i64 %indvars.iv, 1
  %44 = icmp samesign ult i64 %indvars.iv.next, %15
  br i1 %44, label %16, label %._crit_edge, !llvm.loop !51

._crit_edge:                                      ; preds = %43, %Vec_IntStart.exit
  %.013.lcssa = phi i32 [ 0, %Vec_IntStart.exit ], [ %.1, %43 ]
  %.not.i18 = icmp eq ptr %11, null
  br i1 %.not.i18, label %Vec_IntFree.exit, label %45

45:                                               ; preds = %._crit_edge
  tail call void @free(ptr noundef nonnull %11) #22
  br label %Vec_IntFree.exit

Vec_IntFree.exit:                                 ; preds = %._crit_edge, %45
  ret i32 %.013.lcssa
}